(lp0
(lp1
(S'name'
p2
S'jack'
p3
tp4
a(S'query'
p5
S'select'
p6
tp7
a(S'cost'
p8
I10
tp9
a(S'value'
p10
I5
tp11
aa(lp12
S'lee'
p13
aS'update'
p14
aI5
aI0
aa(lp15
S'yiyuezhuo'
p16
aS'insert'
p17
aI100
aI-3
aa.